target datalayout = "e-m:e-p270:32:32-p271:32:32-p272:64:64-i64:64-i128:128-f80:128-n8:16:32:64-S128"
target triple = "x86_64-pc-linux-gnu"

@.str.50 = private unnamed_addr constant [1 x i8] zeroinitializer, align 1
@.str.62 = private unnamed_addr constant [2 x i8] c"s\00", align 1
@.str.161 = private unnamed_addr constant [15 x i8] c" little-endian\00", align 1
@.str.162 = private unnamed_addr constant [12 x i8] c" big-endian\00", align 1
@.str.163 = private unnamed_addr constant [14 x i8] c" mixed-endian\00", align 1
@.str.164 = private unnamed_addr constant [20 x i8] c" unknown-byte-order\00", align 1
@.str.169 = private unnamed_addr constant [5 x i8] c"zero\00", align 1
@.str.170 = private unnamed_addr constant [4 x i8] c"one\00", align 1
@.str.171 = private unnamed_addr constant [4 x i8] c"bkg\00", align 1
@.str.172 = private unnamed_addr constant [8 x i8] c"unknown\00", align 1
@.str.183 = private unnamed_addr constant [25 x i8] c"%lu-bit%s floating-point\00", align 1
@.str.184 = private unnamed_addr constant [14 x i8] c", msb implied\00", align 1
@.str.185 = private unnamed_addr constant [17 x i8] c", msb always set\00", align 1
@.str.186 = private unnamed_addr constant [19 x i8] c", no normalization\00", align 1
@.str.187 = private unnamed_addr constant [24 x i8] c", unknown normalization\00", align 1
@.str.188 = private unnamed_addr constant [45 x i8] c"\0A%*s(significant for %lu bit%s at bit %lu%s)\00", align 1
@.str.189 = private unnamed_addr constant [55 x i8] c"\0A%*s(exponent for %lu bit%s at bit %lu, bias is 0x%lx)\00", align 1
@.str.190 = private unnamed_addr constant [22 x i8] c"\0A%*s(sign bit at %lu)\00", align 1
@.str.191 = private unnamed_addr constant [35 x i8] c"\0A%*s(internal padding bits are %s)\00", align 1

; Function Attrs: nounwind uwtable
define internal zeroext i1 @print_float_type(ptr noundef %0, i64 noundef %1, i32 noundef %2) #0 {
  %4 = alloca i1, align 1
  %5 = alloca ptr, align 8
  %6 = alloca i64, align 8
  %7 = alloca i32, align 4
  %8 = alloca i32, align 4
  %9 = alloca ptr, align 8
  %10 = alloca i64, align 8
  %11 = alloca i64, align 8
  %12 = alloca i64, align 8
  %13 = alloca i64, align 8
  %14 = alloca i64, align 8
  %15 = alloca i64, align 8
  %16 = alloca i32, align 4
  %17 = alloca ptr, align 8
  %18 = alloca i32, align 4
  %19 = alloca ptr, align 8
  %20 = alloca i32, align 4
  store ptr %0, ptr %5, align 8, !tbaa !81
  store i64 %1, ptr %6, align 8, !tbaa !11
  store i32 %2, ptr %7, align 4, !tbaa !4
  call void @llvm.lifetime.start.p0(i64 4, ptr %8) #12
  call void @llvm.lifetime.start.p0(i64 8, ptr %9) #12
  store ptr null, ptr %9, align 8, !tbaa !13
  call void @llvm.lifetime.start.p0(i64 8, ptr %10) #12
  call void @llvm.lifetime.start.p0(i64 8, ptr %11) #12
  call void @llvm.lifetime.start.p0(i64 8, ptr %12) #12
  call void @llvm.lifetime.start.p0(i64 8, ptr %13) #12
  call void @llvm.lifetime.start.p0(i64 8, ptr %14) #12
  call void @llvm.lifetime.start.p0(i64 8, ptr %15) #12
  call void @llvm.lifetime.start.p0(i64 4, ptr %16) #12
  call void @llvm.lifetime.start.p0(i64 8, ptr %17) #12
  store ptr null, ptr %17, align 8, !tbaa !13
  call void @llvm.lifetime.start.p0(i64 4, ptr %18) #12
  call void @llvm.lifetime.start.p0(i64 8, ptr %19) #12
  store ptr null, ptr %19, align 8, !tbaa !13
  %21 = load i64, ptr %6, align 8, !tbaa !11
  %22 = call i32 @H5Tget_class(i64 noundef %21)
  %23 = icmp ne i32 1, %22
  br i1 %23, label %24, label %25

24:                                               ; preds = %3
  store i1 false, ptr %4, align 1
  store i32 1, ptr %20, align 4
  br label %115

25:                                               ; preds = %3
  %26 = load i64, ptr %6, align 8, !tbaa !11
  %27 = call i64 @H5Tget_size(i64 noundef %26)
  %28 = icmp ugt i64 %27, 1
  br i1 %28, label %29, label %47

29:                                               ; preds = %25
  %30 = load i64, ptr %6, align 8, !tbaa !11
  %31 = call i32 @H5Tget_order(i64 noundef %30)
  store i32 %31, ptr %8, align 4, !tbaa !4
  %32 = load i32, ptr %8, align 4, !tbaa !4
  %33 = icmp eq i32 0, %32
  br i1 %33, label %34, label %35

34:                                               ; preds = %29
  store ptr @.str.161, ptr %9, align 8, !tbaa !13
  br label %46

35:                                               ; preds = %29
  %36 = load i32, ptr %8, align 4, !tbaa !4
  %37 = icmp eq i32 1, %36
  br i1 %37, label %38, label %39

38:                                               ; preds = %35
  store ptr @.str.162, ptr %9, align 8, !tbaa !13
  br label %45

39:                                               ; preds = %35
  %40 = load i32, ptr %8, align 4, !tbaa !4
  %41 = icmp eq i32 2, %40
  br i1 %41, label %42, label %43

42:                                               ; preds = %39
  store ptr @.str.163, ptr %9, align 8, !tbaa !13
  br label %44

43:                                               ; preds = %39
  store ptr @.str.164, ptr %9, align 8, !tbaa !13
  br label %44

44:                                               ; preds = %43, %42
  br label %45

45:                                               ; preds = %44, %38
  br label %46

46:                                               ; preds = %45, %34
  br label %48

47:                                               ; preds = %25
  store ptr @.str.50, ptr %9, align 8, !tbaa !13
  br label %48

48:                                               ; preds = %47, %46
  %49 = load ptr, ptr %5, align 8, !tbaa !81
  %50 = load i64, ptr %6, align 8, !tbaa !11
  %51 = call i64 @H5Tget_size(i64 noundef %50)
  %52 = mul i64 8, %51
  %53 = load ptr, ptr %9, align 8, !tbaa !13
  %54 = call ptr (ptr, ptr, ...) @h5tools_str_append(ptr noundef %49, ptr noundef @.str.183, i64 noundef %52, ptr noundef %53)
  %55 = load ptr, ptr %5, align 8, !tbaa !81
  %56 = load i64, ptr %6, align 8, !tbaa !11
  %57 = load i32, ptr %7, align 4, !tbaa !4
  call void @print_precision(ptr noundef %55, i64 noundef %56, i32 noundef %57)
  %58 = load i64, ptr %6, align 8, !tbaa !11
  %59 = call i32 @H5Tget_fields(i64 noundef %58, ptr noundef %10, ptr noundef %12, ptr noundef %11, ptr noundef %14, ptr noundef %13)
  %60 = load i64, ptr %6, align 8, !tbaa !11
  %61 = call i64 @H5Tget_ebias(i64 noundef %60)
  store i64 %61, ptr %15, align 8, !tbaa !11
  %62 = load i64, ptr %6, align 8, !tbaa !11
  %63 = call i32 @H5Tget_norm(i64 noundef %62)
  store i32 %63, ptr %16, align 4, !tbaa !4
  %64 = load i32, ptr %16, align 4, !tbaa !4
  switch i32 %64, label %69 [
    i32 0, label %65
    i32 1, label %66
    i32 2, label %67
    i32 -1, label %68
  ]

65:                                               ; preds = %48
  store ptr @.str.184, ptr %17, align 8, !tbaa !13
  br label %70

66:                                               ; preds = %48
  store ptr @.str.185, ptr %17, align 8, !tbaa !13
  br label %70

67:                                               ; preds = %48
  store ptr @.str.186, ptr %17, align 8, !tbaa !13
  br label %70

68:                                               ; preds = %48
  store ptr @.str.187, ptr %17, align 8, !tbaa !13
  br label %70

69:                                               ; preds = %48
  br label %70

70:                                               ; preds = %69, %68, %67, %66, %65
  %71 = load ptr, ptr %5, align 8, !tbaa !81
  %72 = load i32, ptr %7, align 4, !tbaa !4
  %73 = load i64, ptr %13, align 8, !tbaa !11
  %74 = load i64, ptr %13, align 8, !tbaa !11
  %75 = icmp eq i64 1, %74
  %76 = select i1 %75, ptr @.str.50, ptr @.str.62
  %77 = load i64, ptr %14, align 8, !tbaa !11
  %78 = load ptr, ptr %17, align 8, !tbaa !13
  %79 = call ptr (ptr, ptr, ...) @h5tools_str_append(ptr noundef %71, ptr noundef @.str.188, i32 noundef %72, ptr noundef @.str.50, i64 noundef %73, ptr noundef %76, i64 noundef %77, ptr noundef %78)
  %80 = load ptr, ptr %5, align 8, !tbaa !81
  %81 = load i32, ptr %7, align 4, !tbaa !4
  %82 = load i64, ptr %11, align 8, !tbaa !11
  %83 = load i64, ptr %11, align 8, !tbaa !11
  %84 = icmp eq i64 1, %83
  %85 = select i1 %84, ptr @.str.50, ptr @.str.62
  %86 = load i64, ptr %12, align 8, !tbaa !11
  %87 = load i64, ptr %15, align 8, !tbaa !11
  %88 = call ptr (ptr, ptr, ...) @h5tools_str_append(ptr noundef %80, ptr noundef @.str.189, i32 noundef %81, ptr noundef @.str.50, i64 noundef %82, ptr noundef %85, i64 noundef %86, i64 noundef %87)
  %89 = load ptr, ptr %5, align 8, !tbaa !81
  %90 = load i32, ptr %7, align 4, !tbaa !4
  %91 = load i64, ptr %10, align 8, !tbaa !11
  %92 = call ptr (ptr, ptr, ...) @h5tools_str_append(ptr noundef %89, ptr noundef @.str.190, i32 noundef %90, ptr noundef @.str.50, i64 noundef %91)
  %93 = load i64, ptr %11, align 8, !tbaa !11
  %94 = add i64 1, %93
  %95 = load i64, ptr %13, align 8, !tbaa !11
  %96 = add i64 %94, %95
  %97 = load i64, ptr %6, align 8, !tbaa !11
  %98 = call i64 @H5Tget_precision(i64 noundef %97)
  %99 = icmp ult i64 %96, %98
  br i1 %99, label %100, label %114

100:                                              ; preds = %70
  %101 = load i64, ptr %6, align 8, !tbaa !11
  %102 = call i32 @H5Tget_inpad(i64 noundef %101)
  store i32 %102, ptr %18, align 4, !tbaa !4
  %103 = load i32, ptr %18, align 4, !tbaa !4
  switch i32 %103, label %108 [
    i32 0, label %104
    i32 1, label %105
    i32 2, label %106
    i32 -1, label %107
    i32 3, label %107
  ]

104:                                              ; preds = %100
  store ptr @.str.169, ptr %19, align 8, !tbaa !13
  br label %109

105:                                              ; preds = %100
  store ptr @.str.170, ptr %19, align 8, !tbaa !13
  br label %109

106:                                              ; preds = %100
  store ptr @.str.171, ptr %19, align 8, !tbaa !13
  br label %109

107:                                              ; preds = %100, %100
  store ptr @.str.172, ptr %19, align 8, !tbaa !13
  br label %109

108:                                              ; preds = %100
  br label %109

109:                                              ; preds = %108, %107, %106, %105, %104
  %110 = load ptr, ptr %5, align 8, !tbaa !81
  %111 = load i32, ptr %7, align 4, !tbaa !4
  %112 = load ptr, ptr %19, align 8, !tbaa !13
  %113 = call ptr (ptr, ptr, ...) @h5tools_str_append(ptr noundef %110, ptr noundef @.str.191, i32 noundef %111, ptr noundef @.str.50, ptr noundef %112)
  br label %114

114:                                              ; preds = %109, %70
  store i1 true, ptr %4, align 1
  store i32 1, ptr %20, align 4
  br label %115

115:                                              ; preds = %114, %24
  call void @llvm.lifetime.end.p0(i64 8, ptr %19) #12
  call void @llvm.lifetime.end.p0(i64 4, ptr %18) #12
  call void @llvm.lifetime.end.p0(i64 8, ptr %17) #12
  call void @llvm.lifetime.end.p0(i64 4, ptr %16) #12
  call void @llvm.lifetime.end.p0(i64 8, ptr %15) #12
  call void @llvm.lifetime.end.p0(i64 8, ptr %14) #12
  call void @llvm.lifetime.end.p0(i64 8, ptr %13) #12
  call void @llvm.lifetime.end.p0(i64 8, ptr %12) #12
  call void @llvm.lifetime.end.p0(i64 8, ptr %11) #12
  call void @llvm.lifetime.end.p0(i64 8, ptr %10) #12
  call void @llvm.lifetime.end.p0(i64 8, ptr %9) #12
  call void @llvm.lifetime.end.p0(i64 4, ptr %8) #12
  %116 = load i1, ptr %4, align 1
  ret i1 %116
}