; Function Attrs: nounwind uwtable
define internal fastcc noundef zeroext i1 @print_float_type(ptr noundef nonnull %0, i64 noundef range(i64 0, -9223372036854775808) %1, i32 noundef %2) unnamed_addr #4 {
  %4 = alloca i64, align 8
  %5 = alloca i64, align 8
  %6 = alloca i64, align 8
  %7 = alloca i64, align 8
  %8 = alloca i64, align 8
  call void @llvm.lifetime.start.p0(i64 8, ptr nonnull %4) #20
  call void @llvm.lifetime.start.p0(i64 8, ptr nonnull %5) #20
  call void @llvm.lifetime.start.p0(i64 8, ptr nonnull %6) #20
  call void @llvm.lifetime.start.p0(i64 8, ptr nonnull %7) #20
  call void @llvm.lifetime.start.p0(i64 8, ptr nonnull %8) #20
  %9 = tail call i32 @H5Tget_class(i64 noundef %1) #20
  %.not = icmp eq i32 %9, 1
  br i1 %.not, label %10, label %51

10:                                               ; preds = %3
  %11 = tail call i64 @H5Tget_size(i64 noundef %1) #20
  %12 = icmp ugt i64 %11, 1
  br i1 %12, label %13, label %17

13:                                               ; preds = %10
  %14 = tail call i32 @H5Tget_order(i64 noundef %1) #20
  %15 = icmp ult i32 %14, 3
  br i1 %15, label %switch.lookup, label %17

switch.lookup:                                    ; preds = %13
  %16 = zext nneg i32 %14 to i64
  %switch.gep = getelementptr inbounds nuw [3 x ptr], ptr @switch.table.print_float_type, i64 0, i64 %16
  %switch.load = load ptr, ptr %switch.gep, align 8
  br label %17

17:                                               ; preds = %13, %switch.lookup, %10
  %.032 = phi ptr [ @.str.50, %10 ], [ %switch.load, %switch.lookup ], [ @.str.164, %13 ]
  %18 = tail call i64 @H5Tget_size(i64 noundef %1) #20
  %19 = shl i64 %18, 3
  %20 = tail call ptr (ptr, ptr, ...) @h5tools_str_append(ptr noundef nonnull %0, ptr noundef nonnull @.str.183, i64 noundef %19, ptr noundef nonnull %.032) #20
  tail call fastcc void @print_precision(ptr noundef %0, i64 noundef %1, i32 noundef %2)
  %21 = call i32 @H5Tget_fields(i64 noundef %1, ptr noundef nonnull %4, ptr noundef nonnull %6, ptr noundef nonnull %5, ptr noundef nonnull %8, ptr noundef nonnull %7) #20
  %22 = call i64 @H5Tget_ebias(i64 noundef %1) #20
  %23 = call i32 @H5Tget_norm(i64 noundef %1) #20
  %switch.tableidx = add i32 %23, 1
  %24 = icmp ult i32 %switch.tableidx, 4
  br i1 %24, label %switch.lookup34, label %26

switch.lookup34:                                  ; preds = %17
  %25 = zext nneg i32 %switch.tableidx to i64
  %switch.gep35 = getelementptr inbounds nuw [4 x ptr], ptr @switch.table.print_float_type.2, i64 0, i64 %25
  %switch.load36 = load ptr, ptr %switch.gep35, align 8
  br label %26

26:                                               ; preds = %switch.lookup34, %17
  %.031 = phi ptr [ null, %17 ], [ %switch.load36, %switch.lookup34 ]
  %27 = load i64, ptr %7, align 8, !tbaa !44
  %28 = icmp eq i64 %27, 1
  %29 = select i1 %28, ptr @.str.50, ptr @.str.62
  %30 = load i64, ptr %8, align 8, !tbaa !44
  %31 = call ptr (ptr, ptr, ...) @h5tools_str_append(ptr noundef nonnull %0, ptr noundef nonnull @.str.188, i32 noundef %2, ptr noundef nonnull @.str.50, i64 noundef %27, ptr noundef nonnull %29, i64 noundef %30, ptr noundef %.031) #20
  %32 = load i64, ptr %5, align 8, !tbaa !44
  %33 = icmp eq i64 %32, 1
  %34 = select i1 %33, ptr @.str.50, ptr @.str.62
  %35 = load i64, ptr %6, align 8, !tbaa !44
  %36 = call ptr (ptr, ptr, ...) @h5tools_str_append(ptr noundef nonnull %0, ptr noundef nonnull @.str.189, i32 noundef %2, ptr noundef nonnull @.str.50, i64 noundef %32, ptr noundef nonnull %34, i64 noundef %35, i64 noundef %22) #20
  %37 = load i64, ptr %4, align 8, !tbaa !44
  %38 = call ptr (ptr, ptr, ...) @h5tools_str_append(ptr noundef nonnull %0, ptr noundef nonnull @.str.190, i32 noundef %2, ptr noundef nonnull @.str.50, i64 noundef %37) #20
  %39 = load i64, ptr %5, align 8, !tbaa !44
  %40 = add i64 %39, 1
  %41 = load i64, ptr %7, align 8, !tbaa !44
  %42 = add i64 %40, %41
  %43 = call i64 @H5Tget_precision(i64 noundef %1) #20
  %44 = icmp ult i64 %42, %43
  br i1 %44, label %45, label %51

45:                                               ; preds = %26
  %46 = call i32 @H5Tget_inpad(i64 noundef %1) #20
  %switch.tableidx38 = add i32 %46, 1
  %47 = icmp ult i32 %switch.tableidx38, 5
  br i1 %47, label %switch.lookup37, label %49

switch.lookup37:                                  ; preds = %45
  %48 = zext nneg i32 %switch.tableidx38 to i64
  %switch.gep39 = getelementptr inbounds nuw [5 x ptr], ptr @switch.table.print_float_type.3, i64 0, i64 %48
  %switch.load40 = load ptr, ptr %switch.gep39, align 8
  br label %49

49:                                               ; preds = %switch.lookup37, %45
  %.0 = phi ptr [ null, %45 ], [ %switch.load40, %switch.lookup37 ]
  %50 = call ptr (ptr, ptr, ...) @h5tools_str_append(ptr noundef nonnull %0, ptr noundef nonnull @.str.191, i32 noundef %2, ptr noundef nonnull @.str.50, ptr noundef %.0) #20
  br label %51

51:                                               ; preds = %26, %49, %3
  call void @llvm.lifetime.end.p0(i64 8, ptr nonnull %8) #20
  call void @llvm.lifetime.end.p0(i64 8, ptr nonnull %7) #20
  call void @llvm.lifetime.end.p0(i64 8, ptr nonnull %6) #20
  call void @llvm.lifetime.end.p0(i64 8, ptr nonnull %5) #20
  call void @llvm.lifetime.end.p0(i64 8, ptr nonnull %4) #20
  ret i1 %.not
}